target datalayout = "e-m:e-p270:32:32-p271:32:32-p272:64:64-i64:64-i128:128-f80:128-n8:16:32:64-S128"
target triple = "x86_64-pc-linux-gnu"

@.str.6 = private unnamed_addr constant [1 x i8] zeroinitializer, align 1
@git_gettext_enabled = external global i32, align 4
@.str.31 = private unnamed_addr constant [13 x i8] c"%u.%2.2u GiB\00", align 1
@.str.32 = private unnamed_addr constant [15 x i8] c"%u.%2.2u GiB/s\00", align 1
@.str.33 = private unnamed_addr constant [13 x i8] c"%u.%2.2u MiB\00", align 1
@.str.34 = private unnamed_addr constant [15 x i8] c"%u.%2.2u MiB/s\00", align 1
@.str.35 = private unnamed_addr constant [13 x i8] c"%u.%2.2u KiB\00", align 1
@.str.36 = private unnamed_addr constant [15 x i8] c"%u.%2.2u KiB/s\00", align 1
@.str.37 = private unnamed_addr constant [8 x i8] c"%u byte\00", align 1
@.str.38 = private unnamed_addr constant [9 x i8] c"%u bytes\00", align 1
@.str.39 = private unnamed_addr constant [10 x i8] c"%u byte/s\00", align 1
@.str.40 = private unnamed_addr constant [11 x i8] c"%u bytes/s\00", align 1

; Function Attrs: inlinehint nounwind uwtable
define internal ptr @Q_(ptr noundef %0, ptr noundef %1, i64 noundef %2) #1 {
  %4 = alloca ptr, align 8
  %5 = alloca ptr, align 8
  %6 = alloca ptr, align 8
  %7 = alloca i64, align 8
  store ptr %0, ptr %5, align 8, !tbaa !4
  store ptr %1, ptr %6, align 8, !tbaa !4
  store i64 %2, ptr %7, align 8, !tbaa !12
  %8 = load i32, ptr @git_gettext_enabled, align 4, !tbaa !10
  %9 = icmp ne i32 %8, 0
  br i1 %9, label %19, label %10

10:                                               ; preds = %3
  %11 = load i64, ptr %7, align 8, !tbaa !12
  %12 = icmp eq i64 %11, 1
  br i1 %12, label %13, label %15

13:                                               ; preds = %10
  %14 = load ptr, ptr %5, align 8, !tbaa !4
  br label %17

15:                                               ; preds = %10
  %16 = load ptr, ptr %6, align 8, !tbaa !4
  br label %17

17:                                               ; preds = %15, %13
  %18 = phi ptr [ %14, %13 ], [ %16, %15 ]
  store ptr %18, ptr %4, align 8
  br label %24

19:                                               ; preds = %3
  %20 = load ptr, ptr %5, align 8, !tbaa !4
  %21 = load ptr, ptr %6, align 8, !tbaa !4
  %22 = load i64, ptr %7, align 8, !tbaa !12
  %23 = call ptr @dcngettext(ptr noundef null, ptr noundef %20, ptr noundef %21, i64 noundef %22, i32 noundef 5) #11
  store ptr %23, ptr %4, align 8
  br label %24

24:                                               ; preds = %19, %17
  %25 = load ptr, ptr %4, align 8
  ret ptr %25
}

; Function Attrs: inlinehint nounwind uwtable
define internal ptr @_(ptr noundef %0) #1 {
  %2 = alloca ptr, align 8
  %3 = alloca ptr, align 8
  store ptr %0, ptr %3, align 8, !tbaa !4
  %4 = load ptr, ptr %3, align 8, !tbaa !4
  %5 = load i8, ptr %4, align 1, !tbaa !9
  %6 = icmp ne i8 %5, 0
  br i1 %6, label %8, label %7

7:                                                ; preds = %1
  store ptr @.str.6, ptr %2, align 8
  br label %16

8:                                                ; preds = %1
  %9 = load i32, ptr @git_gettext_enabled, align 4, !tbaa !10
  %10 = icmp ne i32 %9, 0
  br i1 %10, label %13, label %11

11:                                               ; preds = %8
  %12 = load ptr, ptr %3, align 8, !tbaa !4
  store ptr %12, ptr %2, align 8
  br label %16

13:                                               ; preds = %8
  %14 = load ptr, ptr %3, align 8, !tbaa !4
  %15 = call ptr @dcgettext(ptr noundef null, ptr noundef %14, i32 noundef 5) #11
  store ptr %15, ptr %2, align 8
  br label %16

16:                                               ; preds = %13, %11, %7
  %17 = load ptr, ptr %2, align 8
  ret ptr %17
}

; Function Attrs: nounwind uwtable
define internal void @strbuf_humanise(ptr noundef %0, i64 noundef %1, i32 noundef %2) #0 {
  %4 = alloca ptr, align 8
  %5 = alloca i64, align 8
  %6 = alloca i32, align 4
  %7 = alloca i32, align 4
  %8 = alloca i32, align 4
  store ptr %0, ptr %4, align 8, !tbaa !18
  store i64 %1, ptr %5, align 8, !tbaa !12
  store i32 %2, ptr %6, align 4, !tbaa !10
  %9 = load i64, ptr %5, align 8, !tbaa !12
  %10 = icmp sgt i64 %9, 1073741824
  br i1 %10, label %11, label %28

11:                                               ; preds = %3
  %12 = load ptr, ptr %4, align 8, !tbaa !18
  %13 = load i32, ptr %6, align 4, !tbaa !10
  %14 = icmp eq i32 %13, 0
  br i1 %14, label %15, label %17

15:                                               ; preds = %11
  %16 = call ptr @_(ptr noundef @.str.31)
  br label %19

17:                                               ; preds = %11
  %18 = call ptr @_(ptr noundef @.str.32)
  br label %19

19:                                               ; preds = %17, %15
  %20 = phi ptr [ %16, %15 ], [ %18, %17 ]
  %21 = load i64, ptr %5, align 8, !tbaa !12
  %22 = ashr i64 %21, 30
  %23 = trunc i64 %22 to i32
  %24 = load i64, ptr %5, align 8, !tbaa !12
  %25 = and i64 %24, 1073741823
  %26 = trunc i64 %25 to i32
  %27 = udiv i32 %26, 10737419
  call void (ptr, ptr, ...) @strbuf_addf(ptr noundef %12, ptr noundef %20, i32 noundef %23, i32 noundef %27)
  br label %88

28:                                               ; preds = %3
  %29 = load i64, ptr %5, align 8, !tbaa !12
  %30 = icmp sgt i64 %29, 1048576
  br i1 %30, label %31, label %50

31:                                               ; preds = %28
  call void @llvm.lifetime.start.p0(i64 4, ptr %7) #11
  %32 = load i64, ptr %5, align 8, !tbaa !12
  %33 = add nsw i64 %32, 5243
  %34 = trunc i64 %33 to i32
  store i32 %34, ptr %7, align 4, !tbaa !10
  %35 = load ptr, ptr %4, align 8, !tbaa !18
  %36 = load i32, ptr %6, align 4, !tbaa !10
  %37 = icmp eq i32 %36, 0
  br i1 %37, label %38, label %40

38:                                               ; preds = %31
  %39 = call ptr @_(ptr noundef @.str.33)
  br label %42

40:                                               ; preds = %31
  %41 = call ptr @_(ptr noundef @.str.34)
  br label %42

42:                                               ; preds = %40, %38
  %43 = phi ptr [ %39, %38 ], [ %41, %40 ]
  %44 = load i32, ptr %7, align 4, !tbaa !10
  %45 = lshr i32 %44, 20
  %46 = load i32, ptr %7, align 4, !tbaa !10
  %47 = and i32 %46, 1048575
  %48 = mul i32 %47, 100
  %49 = lshr i32 %48, 20
  call void (ptr, ptr, ...) @strbuf_addf(ptr noundef %35, ptr noundef %43, i32 noundef %45, i32 noundef %49)
  call void @llvm.lifetime.end.p0(i64 4, ptr %7) #11
  br label %87

50:                                               ; preds = %28
  %51 = load i64, ptr %5, align 8, !tbaa !12
  %52 = icmp sgt i64 %51, 1024
  br i1 %52, label %53, label %72

53:                                               ; preds = %50
  call void @llvm.lifetime.start.p0(i64 4, ptr %8) #11
  %54 = load i64, ptr %5, align 8, !tbaa !12
  %55 = add nsw i64 %54, 5
  %56 = trunc i64 %55 to i32
  store i32 %56, ptr %8, align 4, !tbaa !10
  %57 = load ptr, ptr %4, align 8, !tbaa !18
  %58 = load i32, ptr %6, align 4, !tbaa !10
  %59 = icmp eq i32 %58, 0
  br i1 %59, label %60, label %62

60:                                               ; preds = %53
  %61 = call ptr @_(ptr noundef @.str.35)
  br label %64

62:                                               ; preds = %53
  %63 = call ptr @_(ptr noundef @.str.36)
  br label %64

64:                                               ; preds = %62, %60
  %65 = phi ptr [ %61, %60 ], [ %63, %62 ]
  %66 = load i32, ptr %8, align 4, !tbaa !10
  %67 = lshr i32 %66, 10
  %68 = load i32, ptr %8, align 4, !tbaa !10
  %69 = and i32 %68, 1023
  %70 = mul i32 %69, 100
  %71 = lshr i32 %70, 10
  call void (ptr, ptr, ...) @strbuf_addf(ptr noundef %57, ptr noundef %65, i32 noundef %67, i32 noundef %71)
  call void @llvm.lifetime.end.p0(i64 4, ptr %8) #11
  br label %86

72:                                               ; preds = %50
  %73 = load ptr, ptr %4, align 8, !tbaa !18
  %74 = load i32, ptr %6, align 4, !tbaa !10
  %75 = icmp eq i32 %74, 0
  br i1 %75, label %76, label %79

76:                                               ; preds = %72
  %77 = load i64, ptr %5, align 8, !tbaa !12
  %78 = call ptr @Q_(ptr noundef @.str.37, ptr noundef @.str.38, i64 noundef %77)
  br label %82

79:                                               ; preds = %72
  %80 = load i64, ptr %5, align 8, !tbaa !12
  %81 = call ptr @Q_(ptr noundef @.str.39, ptr noundef @.str.40, i64 noundef %80)
  br label %82

82:                                               ; preds = %79, %76
  %83 = phi ptr [ %78, %76 ], [ %81, %79 ]
  %84 = load i64, ptr %5, align 8, !tbaa !12
  %85 = trunc i64 %84 to i32
  call void (ptr, ptr, ...) @strbuf_addf(ptr noundef %73, ptr noundef %83, i32 noundef %85)
  br label %86

86:                                               ; preds = %82, %64
  br label %87

87:                                               ; preds = %86, %42
  br label %88

88:                                               ; preds = %87, %19
  ret void
}