; Function Attrs: nounwind uwtable
define internal fastcc void @strbuf_humanise(ptr noundef captures(none) %0, i64 noundef %1, i32 noundef range(i32 0, 2) %2) unnamed_addr #3 {
  %4 = icmp sgt i64 %1, 1073741824
  br i1 %4, label %5, label %15

5:                                                ; preds = %3
  %6 = icmp eq i32 %2, 0
  %7 = load i32, ptr @git_gettext_enabled, align 4, !tbaa !33
  %.not4.i = icmp eq i32 %7, 0
  %.str.31..str.32 = select i1 %6, ptr @.str.31, ptr @.str.32
  br i1 %.not4.i, label %_.exit, label %_.exit.sink.split

_.exit.sink.split:                                ; preds = %5
  %8 = tail call ptr @dcgettext(ptr noundef null, ptr noundef nonnull %.str.31..str.32, i32 noundef 5) #25
  br label %_.exit

_.exit:                                           ; preds = %5, %_.exit.sink.split
  %9 = phi ptr [ %8, %_.exit.sink.split ], [ %.str.31..str.32, %5 ]
  %10 = lshr i64 %1, 30
  %11 = trunc i64 %10 to i32
  %12 = trunc i64 %1 to i32
  %13 = and i32 %12, 1073741823
  %14 = udiv i32 %13, 10737419
  tail call void (ptr, ptr, ...) @strbuf_addf(ptr noundef %0, ptr noundef %9, i32 noundef %11, i32 noundef %14)
  br label %58

15:                                               ; preds = %3
  %16 = icmp sgt i64 %1, 1048576
  br i1 %16, label %17, label %28

17:                                               ; preds = %15
  %18 = trunc i64 %1 to i32
  %19 = add nuw nsw i32 %18, 5243
  %20 = icmp eq i32 %2, 0
  %21 = load i32, ptr @git_gettext_enabled, align 4, !tbaa !33
  %.not4.i24 = icmp eq i32 %21, 0
  %.str.33..str.34 = select i1 %20, ptr @.str.33, ptr @.str.34
  br i1 %.not4.i24, label %_.exit26, label %_.exit26.sink.split

_.exit26.sink.split:                              ; preds = %17
  %22 = tail call ptr @dcgettext(ptr noundef null, ptr noundef nonnull %.str.33..str.34, i32 noundef 5) #25
  br label %_.exit26

_.exit26:                                         ; preds = %17, %_.exit26.sink.split
  %23 = phi ptr [ %22, %_.exit26.sink.split ], [ %.str.33..str.34, %17 ]
  %24 = lshr i32 %19, 20
  %25 = and i32 %19, 1048575
  %26 = mul nuw nsw i32 %25, 100
  %27 = lshr i32 %26, 20
  tail call void (ptr, ptr, ...) @strbuf_addf(ptr noundef %0, ptr noundef %23, i32 noundef %24, i32 noundef %27)
  br label %58

28:                                               ; preds = %15
  %29 = icmp sgt i64 %1, 1024
  br i1 %29, label %30, label %41

30:                                               ; preds = %28
  %31 = trunc i64 %1 to i32
  %32 = add nuw nsw i32 %31, 5
  %33 = icmp eq i32 %2, 0
  %34 = load i32, ptr @git_gettext_enabled, align 4, !tbaa !33
  %.not4.i30 = icmp eq i32 %34, 0
  %.str.35..str.36 = select i1 %33, ptr @.str.35, ptr @.str.36
  br i1 %.not4.i30, label %_.exit32, label %_.exit32.sink.split

_.exit32.sink.split:                              ; preds = %30
  %35 = tail call ptr @dcgettext(ptr noundef null, ptr noundef nonnull %.str.35..str.36, i32 noundef 5) #25
  br label %_.exit32

_.exit32:                                         ; preds = %30, %_.exit32.sink.split
  %36 = phi ptr [ %35, %_.exit32.sink.split ], [ %.str.35..str.36, %30 ]
  %37 = lshr i32 %32, 10
  %38 = and i32 %32, 1023
  %39 = mul nuw nsw i32 %38, 100
  %40 = lshr i32 %39, 10
  tail call void (ptr, ptr, ...) @strbuf_addf(ptr noundef %0, ptr noundef %36, i32 noundef %37, i32 noundef %40)
  br label %58

41:                                               ; preds = %28
  %42 = icmp eq i32 %2, 0
  %43 = load i32, ptr @git_gettext_enabled, align 4, !tbaa !33
  %.not.i = icmp eq i32 %43, 0
  br i1 %42, label %44, label %50

44:                                               ; preds = %41
  br i1 %.not.i, label %45, label %48

45:                                               ; preds = %44
  %46 = icmp eq i64 %1, 1
  %47 = select i1 %46, ptr @.str.37, ptr @.str.38
  br label %Q_.exit

48:                                               ; preds = %44
  %49 = tail call ptr @dcngettext(ptr noundef null, ptr noundef nonnull @.str.37, ptr noundef nonnull @.str.38, i64 noundef range(i64 -9223372036854775808, 1025) %1, i32 noundef 5) #25
  br label %Q_.exit

50:                                               ; preds = %41
  br i1 %.not.i, label %51, label %54

51:                                               ; preds = %50
  %52 = icmp eq i64 %1, 1
  %53 = select i1 %52, ptr @.str.39, ptr @.str.40
  br label %Q_.exit

54:                                               ; preds = %50
  %55 = tail call ptr @dcngettext(ptr noundef null, ptr noundef nonnull @.str.39, ptr noundef nonnull @.str.40, i64 noundef range(i64 -9223372036854775808, 1025) %1, i32 noundef 5) #25
  br label %Q_.exit

Q_.exit:                                          ; preds = %54, %51, %48, %45
  %56 = phi ptr [ %49, %48 ], [ %47, %45 ], [ %55, %54 ], [ %53, %51 ]
  %57 = trunc i64 %1 to i32
  tail call void (ptr, ptr, ...) @strbuf_addf(ptr noundef %0, ptr noundef %56, i32 noundef %57)
  br label %58

58:                                               ; preds = %_.exit26, %Q_.exit, %_.exit32, %_.exit
  ret void
}